
kernel8.elf:     file format elf64-littleaarch64


Disassembly of section .text:

0000000000000000 <_start>:
       0:	14000001 	b	4 <skip>

0000000000000004 <skip>:
       4:	d53800a0 	mrs	x0, mpidr_el1
       8:	d2bfe001 	mov	x1, #0xff000000            	// #4278190080
       c:	8a210000 	bic	x0, x0, x1
      10:	b4000160 	cbz	x0, 3c <core_zero>
      14:	d1000401 	sub	x1, x0, #0x1
      18:	b4000181 	cbz	x1, 48 <core_one>
      1c:	d1000801 	sub	x1, x0, #0x2
      20:	b4000241 	cbz	x1, 68 <core_two>
      24:	d1000c01 	sub	x1, x0, #0x3
      28:	b4000301 	cbz	x1, 88 <core_three>
      2c:	d53800a0 	mrs	x0, mpidr_el1
      30:	d2a00081 	mov	x1, #0x40000               	// #262144
      34:	b9000020 	str	w0, [x1]
      38:	14000003 	b	44 <hang>

000000000000003c <core_zero>:
      3c:	b27103ff 	mov	sp, #0x8000                	// #32768
      40:	94000242 	bl	948 <notmain>

0000000000000044 <hang>:
      44:	14000000 	b	44 <hang>

0000000000000048 <core_one>:
      48:	b27307ff 	mov	sp, #0x6000                	// #24576
      4c:	d2800001 	mov	x1, #0x0                   	// #0
      50:	b90003e1 	str	w1, [sp]
      54:	d2800000 	mov	x0, #0x0                   	// #0

0000000000000058 <core_one_loop>:
      58:	b94003e0 	ldr	w0, [sp]
      5c:	34ffffe0 	cbz	w0, 58 <core_one_loop>
      60:	94000012 	bl	a8 <hopper>
      64:	17fffff8 	b	44 <hang>

0000000000000068 <core_two>:
      68:	b27203ff 	mov	sp, #0x4000                	// #16384
      6c:	d2800001 	mov	x1, #0x0                   	// #0
      70:	b90003e1 	str	w1, [sp]
      74:	d2800000 	mov	x0, #0x0                   	// #0

0000000000000078 <core_two_loop>:
      78:	b94003e0 	ldr	w0, [sp]
      7c:	34ffffe0 	cbz	w0, 78 <core_two_loop>
      80:	9400000a 	bl	a8 <hopper>
      84:	17fffff0 	b	44 <hang>

0000000000000088 <core_three>:
      88:	b27303ff 	mov	sp, #0x2000                	// #8192
      8c:	d2800001 	mov	x1, #0x0                   	// #0
      90:	b90003e1 	str	w1, [sp]
      94:	d2800000 	mov	x0, #0x0                   	// #0

0000000000000098 <core_three_loop>:
      98:	b94003e0 	ldr	w0, [sp]
      9c:	34ffffe0 	cbz	w0, 98 <core_three_loop>
      a0:	94000002 	bl	a8 <hopper>
      a4:	17ffffe8 	b	44 <hang>

00000000000000a8 <hopper>:
      a8:	d61f0000 	br	x0

00000000000000ac <PUT32>:
      ac:	b9000001 	str	w1, [x0]
      b0:	d65f03c0 	ret

00000000000000b4 <GET32>:
      b4:	b9400000 	ldr	w0, [x0]
      b8:	d65f03c0 	ret

00000000000000bc <GETPC>:
      bc:	aa1e03e0 	mov	x0, x30
      c0:	d65f03c0 	ret

00000000000000c4 <dummy>:
      c4:	d65f03c0 	ret

00000000000000c8 <idle>:
      c8:	d503205f 	wfe
      cc:	d65f03c0 	ret

00000000000000d0 <get_core>:
      d0:	d53800a0 	mrs	x0, mpidr_el1
      d4:	92400c00 	and	x0, x0, #0xf
      d8:	d65f03c0 	ret
      dc:	00000000 	.inst	0x00000000 ; undefined

00000000000000e0 <init_timeoutq>:
      e0:	a9bd7bfd 	stp	x29, x30, [sp, #-48]!
      e4:	f0000003 	adrp	x3, 3000 <queue+0x18e0>
      e8:	f0000004 	adrp	x4, 3000 <queue+0x18e0>
      ec:	913ce061 	add	x1, x3, #0xf38
      f0:	913c8082 	add	x2, x4, #0xf20
      f4:	910003fd 	mov	x29, sp
      f8:	f0000005 	adrp	x5, 3000 <queue+0x18e0>
      fc:	a90153f3 	stp	x19, x20, [sp, #16]
     100:	f0000014 	adrp	x20, 3000 <queue+0x18e0>
     104:	b0000013 	adrp	x19, 1000 <uart_put12x>
     108:	911c8273 	add	x19, x19, #0x720
     10c:	f90013f5 	str	x21, [sp, #32]
     110:	aa0103e0 	mov	x0, x1
     114:	f9079c61 	str	x1, [x3, #3896]
     118:	d2850003 	mov	x3, #0x2800                	// #10240
     11c:	f9079082 	str	x2, [x4, #3872]
     120:	8b030275 	add	x21, x19, x3
     124:	f90798a2 	str	x2, [x5, #3888]
     128:	f907a681 	str	x1, [x20, #3912]
     12c:	f9000421 	str	x1, [x1, #8]
     130:	f9000442 	str	x2, [x2, #8]
     134:	14000002 	b	13c <init_timeoutq+0x5c>
     138:	f947a680 	ldr	x0, [x20, #3912]
     13c:	aa1303e1 	mov	x1, x19
     140:	9100a273 	add	x19, x19, #0x28
     144:	940002e1 	bl	cc8 <ll_r_insert>
     148:	eb1302bf 	cmp	x21, x19
     14c:	54ffff61 	b.ne	138 <init_timeoutq+0x58>  // b.any
     150:	94000344 	bl	e60 <get_time>
     154:	b0000001 	adrp	x1, 1000 <uart_put12x>
     158:	a94153f3 	ldp	x19, x20, [sp, #16]
     15c:	f9038c20 	str	x0, [x1, #1816]
     160:	f94013f5 	ldr	x21, [sp, #32]
     164:	a8c37bfd 	ldp	x29, x30, [sp], #48
     168:	d65f03c0 	ret
     16c:	d503201f 	nop

0000000000000170 <bring_timeoutq_current>:
     170:	a9bd7bfd 	stp	x29, x30, [sp, #-48]!
     174:	910003fd 	mov	x29, sp
     178:	a90153f3 	stp	x19, x20, [sp, #16]
     17c:	a9025bf5 	stp	x21, x22, [sp, #32]
     180:	97ffffcf 	bl	bc <GETPC>
     184:	d2800002 	mov	x2, #0x0                   	// #0
     188:	b0000001 	adrp	x1, 1000 <uart_put12x>
     18c:	910c6021 	add	x1, x1, #0x318
     190:	9400012c 	bl	640 <dont_call_directly>
     194:	b0000015 	adrp	x21, 1000 <uart_put12x>
     198:	f0000000 	adrp	x0, 3000 <queue+0x18e0>
     19c:	f9479800 	ldr	x0, [x0, #3888]
     1a0:	940002c6 	bl	cb8 <ll_first>
     1a4:	aa0003f3 	mov	x19, x0
     1a8:	9400032e 	bl	e60 <get_time>
     1ac:	aa0003f6 	mov	x22, x0
     1b0:	f9438eb4 	ldr	x20, [x21, #1816]
     1b4:	cb140014 	sub	x20, x0, x20
     1b8:	97ffffc1 	bl	bc <GETPC>
     1bc:	b0000001 	adrp	x1, 1000 <uart_put12x>
     1c0:	aa1403e2 	mov	x2, x20
     1c4:	910ce021 	add	x1, x1, #0x338
     1c8:	9400011e 	bl	640 <dont_call_directly>
     1cc:	b40001d3 	cbz	x19, 204 <bring_timeoutq_current+0x94>
     1d0:	97ffffbb 	bl	bc <GETPC>
     1d4:	b9801262 	ldrsw	x2, [x19, #16]
     1d8:	b0000001 	adrp	x1, 1000 <uart_put12x>
     1dc:	910d6021 	add	x1, x1, #0x358
     1e0:	94000118 	bl	640 <dont_call_directly>
     1e4:	b9401260 	ldr	w0, [x19, #16]
     1e8:	4b140014 	sub	w20, w0, w20
     1ec:	b9001274 	str	w20, [x19, #16]
     1f0:	97ffffb3 	bl	bc <GETPC>
     1f4:	b9801262 	ldrsw	x2, [x19, #16]
     1f8:	b0000001 	adrp	x1, 1000 <uart_put12x>
     1fc:	910e0021 	add	x1, x1, #0x380
     200:	94000110 	bl	640 <dont_call_directly>
     204:	b9401260 	ldr	w0, [x19, #16]
     208:	f9038eb6 	str	x22, [x21, #1816]
     20c:	a94153f3 	ldp	x19, x20, [sp, #16]
     210:	a9425bf5 	ldp	x21, x22, [sp, #32]
     214:	a8c37bfd 	ldp	x29, x30, [sp], #48
     218:	d65f03c0 	ret
     21c:	d503201f 	nop

0000000000000220 <create_timeoutq_event>:
     220:	a9b97bfd 	stp	x29, x30, [sp, #-112]!
     224:	910003fd 	mov	x29, sp
     228:	a90153f3 	stp	x19, x20, [sp, #16]
     22c:	aa0203f3 	mov	x19, x2
     230:	a9025bf5 	stp	x21, x22, [sp, #32]
     234:	93407c16 	sxtw	x22, w0
     238:	2a0103f5 	mov	w21, w1
     23c:	a9046bf9 	stp	x25, x26, [sp, #64]
     240:	aa1603f4 	mov	x20, x22
     244:	f9002bfb 	str	x27, [sp, #80]
     248:	f90037e3 	str	x3, [sp, #104]
     24c:	97ffff9c 	bl	bc <GETPC>
     250:	b0000001 	adrp	x1, 1000 <uart_put12x>
     254:	910ea021 	add	x1, x1, #0x3a8
     258:	d2800002 	mov	x2, #0x0                   	// #0
     25c:	940000f9 	bl	640 <dont_call_directly>
     260:	97ffff97 	bl	bc <GETPC>
     264:	aa1603e2 	mov	x2, x22
     268:	b0000001 	adrp	x1, 1000 <uart_put12x>
     26c:	910f2021 	add	x1, x1, #0x3c8
     270:	940000f4 	bl	640 <dont_call_directly>
     274:	f0000000 	adrp	x0, 3000 <queue+0x18e0>
     278:	f947a400 	ldr	x0, [x0, #3912]
     27c:	9400027d 	bl	c70 <ll_pop>
     280:	aa0003fb 	mov	x27, x0
     284:	f94037e3 	ldr	x3, [sp, #104]
     288:	b40009e0 	cbz	x0, 3c4 <create_timeoutq_event+0x1a4>
     28c:	b9001775 	str	w21, [x27, #20]
     290:	f000001a 	adrp	x26, 3000 <queue+0x18e0>
     294:	a9018f73 	stp	x19, x3, [x27, #24]
     298:	97ffff89 	bl	bc <GETPC>
     29c:	b0000001 	adrp	x1, 1000 <uart_put12x>
     2a0:	d2800002 	mov	x2, #0x0                   	// #0
     2a4:	91102021 	add	x1, x1, #0x408
     2a8:	940000e6 	bl	640 <dont_call_directly>
     2ac:	f9479b40 	ldr	x0, [x26, #3888]
     2b0:	f9400413 	ldr	x19, [x0, #8]
     2b4:	eb13001f 	cmp	x0, x19
     2b8:	54000680 	b.eq	388 <create_timeoutq_event+0x168>  // b.none
     2bc:	b0000019 	adrp	x25, 1000 <uart_put12x>
     2c0:	d2800015 	mov	x21, #0x0                   	// #0
     2c4:	9110c339 	add	x25, x25, #0x430
     2c8:	a90363f7 	stp	x23, x24, [sp, #48]
     2cc:	b0000018 	adrp	x24, 1000 <uart_put12x>
     2d0:	b0000017 	adrp	x23, 1000 <uart_put12x>
     2d4:	91116318 	add	x24, x24, #0x458
     2d8:	911202f7 	add	x23, x23, #0x480
     2dc:	14000005 	b	2f0 <create_timeoutq_event+0xd0>
     2e0:	f9479b40 	ldr	x0, [x26, #3888]
     2e4:	f9400673 	ldr	x19, [x19, #8]
     2e8:	eb13001f 	cmp	x0, x19
     2ec:	540004c0 	b.eq	384 <create_timeoutq_event+0x164>  // b.none
     2f0:	b9401260 	ldr	w0, [x19, #16]
     2f4:	4b000294 	sub	w20, w20, w0
     2f8:	97ffff71 	bl	bc <GETPC>
     2fc:	93407e96 	sxtw	x22, w20
     300:	aa1503e2 	mov	x2, x21
     304:	aa1903e1 	mov	x1, x25
     308:	940000ce 	bl	640 <dont_call_directly>
     30c:	910006b5 	add	x21, x21, #0x1
     310:	97ffff6b 	bl	bc <GETPC>
     314:	aa1603e2 	mov	x2, x22
     318:	aa1803e1 	mov	x1, x24
     31c:	940000c9 	bl	640 <dont_call_directly>
     320:	97ffff67 	bl	bc <GETPC>
     324:	b9801262 	ldrsw	x2, [x19, #16]
     328:	aa1703e1 	mov	x1, x23
     32c:	940000c5 	bl	640 <dont_call_directly>
     330:	36fffd94 	tbz	w20, #31, 2e0 <create_timeoutq_event+0xc0>
     334:	f9400260 	ldr	x0, [x19]
     338:	aa1b03e1 	mov	x1, x27
     33c:	94000263 	bl	cc8 <ll_r_insert>
     340:	b9401260 	ldr	w0, [x19, #16]
     344:	0b000294 	add	w20, w20, w0
     348:	b9001374 	str	w20, [x27, #16]
     34c:	b9401260 	ldr	w0, [x19, #16]
     350:	4b140014 	sub	w20, w0, w20
     354:	b9001274 	str	w20, [x19, #16]
     358:	97ffff59 	bl	bc <GETPC>
     35c:	aa1603e2 	mov	x2, x22
     360:	b0000001 	adrp	x1, 1000 <uart_put12x>
     364:	a94153f3 	ldp	x19, x20, [sp, #16]
     368:	9112a021 	add	x1, x1, #0x4a8
     36c:	a9425bf5 	ldp	x21, x22, [sp, #32]
     370:	a94363f7 	ldp	x23, x24, [sp, #48]
     374:	a9446bf9 	ldp	x25, x26, [sp, #64]
     378:	f9402bfb 	ldr	x27, [sp, #80]
     37c:	a8c77bfd 	ldp	x29, x30, [sp], #112
     380:	140000b0 	b	640 <dont_call_directly>
     384:	a94363f7 	ldp	x23, x24, [sp, #48]
     388:	97ffff4d 	bl	bc <GETPC>
     38c:	aa1603e2 	mov	x2, x22
     390:	b0000001 	adrp	x1, 1000 <uart_put12x>
     394:	9112a021 	add	x1, x1, #0x4a8
     398:	940000aa 	bl	640 <dont_call_directly>
     39c:	f9479b40 	ldr	x0, [x26, #3888]
     3a0:	aa1b03e1 	mov	x1, x27
     3a4:	a9425bf5 	ldp	x21, x22, [sp, #32]
     3a8:	f9400000 	ldr	x0, [x0]
     3ac:	a9446bf9 	ldp	x25, x26, [sp, #64]
     3b0:	b9001374 	str	w20, [x27, #16]
     3b4:	a94153f3 	ldp	x19, x20, [sp, #16]
     3b8:	f9402bfb 	ldr	x27, [sp, #80]
     3bc:	a8c77bfd 	ldp	x29, x30, [sp], #112
     3c0:	14000242 	b	cc8 <ll_r_insert>
     3c4:	b0000001 	adrp	x1, 1000 <uart_put12x>
     3c8:	52800060 	mov	w0, #0x3                   	// #3
     3cc:	910fc021 	add	x1, x1, #0x3f0
     3d0:	940000b6 	bl	6a8 <panic>
     3d4:	f94037e3 	ldr	x3, [sp, #104]
     3d8:	17ffffad 	b	28c <create_timeoutq_event+0x6c>
     3dc:	d503201f 	nop

00000000000003e0 <handle_timeoutq_event>:
     3e0:	a9bd7bfd 	stp	x29, x30, [sp, #-48]!
     3e4:	910003fd 	mov	x29, sp
     3e8:	a90153f3 	stp	x19, x20, [sp, #16]
     3ec:	f90013f5 	str	x21, [sp, #32]
     3f0:	97ffff33 	bl	bc <GETPC>
     3f4:	f0000015 	adrp	x21, 3000 <queue+0x18e0>
     3f8:	d2800002 	mov	x2, #0x0                   	// #0
     3fc:	b0000001 	adrp	x1, 1000 <uart_put12x>
     400:	91138021 	add	x1, x1, #0x4e0
     404:	9400008f 	bl	640 <dont_call_directly>
     408:	f9479aa0 	ldr	x0, [x21, #3888]
     40c:	9400022b 	bl	cb8 <ll_first>
     410:	aa0003f3 	mov	x19, x0
     414:	b4000360 	cbz	x0, 480 <handle_timeoutq_event+0xa0>
     418:	97ffff56 	bl	170 <bring_timeoutq_current>
     41c:	52800014 	mov	w20, #0x0                   	// #0
     420:	b9401260 	ldr	w0, [x19, #16]
     424:	7100041f 	cmp	w0, #0x1
     428:	540000cd 	b.le	440 <handle_timeoutq_event+0x60>
     42c:	2a1403e0 	mov	w0, w20
     430:	a94153f3 	ldp	x19, x20, [sp, #16]
     434:	f94013f5 	ldr	x21, [sp, #32]
     438:	a8c37bfd 	ldp	x29, x30, [sp], #48
     43c:	d65f03c0 	ret
     440:	a9418261 	ldp	x1, x0, [x19, #24]
     444:	52800034 	mov	w20, #0x1                   	// #1
     448:	d63f0020 	blr	x1
     44c:	f9479aa0 	ldr	x0, [x21, #3888]
     450:	94000208 	bl	c70 <ll_pop>
     454:	b9401660 	ldr	w0, [x19, #20]
     458:	34fffea0 	cbz	w0, 42c <handle_timeoutq_event+0x4c>
     45c:	f0000000 	adrp	x0, 3000 <queue+0x18e0>
     460:	aa1303e1 	mov	x1, x19
     464:	f947a400 	ldr	x0, [x0, #3912]
     468:	94000218 	bl	cc8 <ll_r_insert>
     46c:	a9418e62 	ldp	x2, x3, [x19, #24]
     470:	b9401661 	ldr	w1, [x19, #20]
     474:	2a0103e0 	mov	w0, w1
     478:	97ffff6a 	bl	220 <create_timeoutq_event>
     47c:	17ffffec 	b	42c <handle_timeoutq_event+0x4c>
     480:	b0000001 	adrp	x1, 1000 <uart_put12x>
     484:	52800080 	mov	w0, #0x4                   	// #4
     488:	91140021 	add	x1, x1, #0x500
     48c:	94000087 	bl	6a8 <panic>
     490:	17ffffe2 	b	418 <handle_timeoutq_event+0x38>
     494:	00000000 	.inst	0x00000000 ; undefined

0000000000000498 <init_errno>:
     498:	f0000002 	adrp	x2, 3000 <queue+0x18e0>
     49c:	913d4040 	add	x0, x2, #0xf50
     4a0:	b0000001 	adrp	x1, 1000 <uart_put12x>
     4a4:	91146021 	add	x1, x1, #0x518
     4a8:	b0000005 	adrp	x5, 1000 <uart_put12x>
     4ac:	f907a841 	str	x1, [x2, #3920]
     4b0:	9114a0a5 	add	x5, x5, #0x528
     4b4:	b0000004 	adrp	x4, 1000 <uart_put12x>
     4b8:	b0000003 	adrp	x3, 1000 <uart_put12x>
     4bc:	91152084 	add	x4, x4, #0x548
     4c0:	91158063 	add	x3, x3, #0x560
     4c4:	b0000002 	adrp	x2, 1000 <uart_put12x>
     4c8:	b0000001 	adrp	x1, 1000 <uart_put12x>
     4cc:	9115e042 	add	x2, x2, #0x578
     4d0:	91164021 	add	x1, x1, #0x590
     4d4:	a9009005 	stp	x5, x4, [x0, #8]
     4d8:	a9018803 	stp	x3, x2, [x0, #24]
     4dc:	f9001401 	str	x1, [x0, #40]
     4e0:	d65f03c0 	ret
     4e4:	d503201f 	nop

00000000000004e8 <print_time>:
     4e8:	a9bd7bfd 	stp	x29, x30, [sp, #-48]!
     4ec:	910003fd 	mov	x29, sp
     4f0:	a90153f3 	stp	x19, x20, [sp, #16]
     4f4:	b201e3f4 	mov	x20, #0x8888888888888888    	// #-8608480567731124088
     4f8:	f2911134 	movk	x20, #0x8889
     4fc:	a9025bf5 	stp	x21, x22, [sp, #32]
     500:	94000258 	bl	e60 <get_time>
     504:	aa0003f3 	mov	x19, x0
     508:	d289b5e0 	mov	x0, #0x4daf                	// #19887
     50c:	b0000016 	adrp	x22, 1000 <uart_put12x>
     510:	f2ae50e0 	movk	x0, #0x7287, lsl #16
     514:	d348fe75 	lsr	x21, x19, #8
     518:	f2ca98c0 	movk	x0, #0x54c6, lsl #32
     51c:	9116e2d6 	add	x22, x22, #0x5b8
     520:	f2e023c0 	movk	x0, #0x11e, lsl #48
     524:	9bc07eb5 	umulh	x21, x21, x0
     528:	d34afeb5 	lsr	x21, x21, #10
     52c:	aa1503e0 	mov	x0, x21
     530:	940002c6 	bl	1048 <uart_put2d>
     534:	aa1603e0 	mov	x0, x22
     538:	94000314 	bl	1188 <uart_puts>
     53c:	9bd47ea0 	umulh	x0, x21, x20
     540:	d345fc00 	lsr	x0, x0, #5
     544:	d37cec01 	lsl	x1, x0, #4
     548:	cb000020 	sub	x0, x1, x0
     54c:	cb000aa0 	sub	x0, x21, x0, lsl #2
     550:	940002be 	bl	1048 <uart_put2d>
     554:	aa1603e0 	mov	x0, x22
     558:	9400030c 	bl	1188 <uart_puts>
     55c:	d2869b61 	mov	x1, #0x34db                	// #13531
     560:	f2baf6c1 	movk	x1, #0xd7b6, lsl #16
     564:	f2dbd041 	movk	x1, #0xde82, lsl #32
     568:	f2e86361 	movk	x1, #0x431b, lsl #48
     56c:	9bc17e61 	umulh	x1, x19, x1
     570:	d352fc21 	lsr	x1, x1, #18
     574:	9bd47c34 	umulh	x20, x1, x20
     578:	d345fe94 	lsr	x20, x20, #5
     57c:	d37cee80 	lsl	x0, x20, #4
     580:	cb140000 	sub	x0, x0, x20
     584:	cb000820 	sub	x0, x1, x0, lsl #2
     588:	940002b0 	bl	1048 <uart_put2d>
     58c:	b0000000 	adrp	x0, 1000 <uart_put12x>
     590:	91170000 	add	x0, x0, #0x5c0
     594:	940002fd 	bl	1188 <uart_puts>
     598:	d29ef9e2 	mov	x2, #0xf7cf                	// #63439
     59c:	d343fe60 	lsr	x0, x19, #3
     5a0:	f2bc6a62 	movk	x2, #0xe353, lsl #16
     5a4:	f2d374a2 	movk	x2, #0x9ba5, lsl #32
     5a8:	f2e41882 	movk	x2, #0x20c4, lsl #48
     5ac:	a94153f3 	ldp	x19, x20, [sp, #16]
     5b0:	9bc27c00 	umulh	x0, x0, x2
     5b4:	a9425bf5 	ldp	x21, x22, [sp, #32]
     5b8:	d347fc01 	lsr	x1, x0, #7
     5bc:	d344fc00 	lsr	x0, x0, #4
     5c0:	a8c37bfd 	ldp	x29, x30, [sp], #48
     5c4:	9bc27c21 	umulh	x1, x1, x2
     5c8:	d344fc21 	lsr	x1, x1, #4
     5cc:	d37be822 	lsl	x2, x1, #5
     5d0:	cb010042 	sub	x2, x2, x1
     5d4:	8b020821 	add	x1, x1, x2, lsl #2
     5d8:	cb010c00 	sub	x0, x0, x1, lsl #3
     5dc:	140002af 	b	1098 <uart_put3d>

00000000000005e0 <hex_print_time>:
     5e0:	a9be7bfd 	stp	x29, x30, [sp, #-32]!
     5e4:	910003fd 	mov	x29, sp
     5e8:	a90153f3 	stp	x19, x20, [sp, #16]
     5ec:	9400021d 	bl	e60 <get_time>
     5f0:	b0000014 	adrp	x20, 1000 <uart_put12x>
     5f4:	aa0003f3 	mov	x19, x0
     5f8:	9116e294 	add	x20, x20, #0x5b8
     5fc:	d360fc00 	lsr	x0, x0, #32
     600:	9400026e 	bl	fb8 <uart_put8x>
     604:	aa1403e0 	mov	x0, x20
     608:	940002e0 	bl	1188 <uart_puts>
     60c:	531a7e60 	lsr	w0, w19, #26
     610:	9400026a 	bl	fb8 <uart_put8x>
     614:	aa1403e0 	mov	x0, x20
     618:	940002dc 	bl	1188 <uart_puts>
     61c:	53146660 	ubfx	w0, w19, #20, #6
     620:	94000266 	bl	fb8 <uart_put8x>
     624:	b0000000 	adrp	x0, 1000 <uart_put12x>
     628:	91170000 	add	x0, x0, #0x5c0
     62c:	940002d7 	bl	1188 <uart_puts>
     630:	530a4e60 	ubfx	w0, w19, #10, #10
     634:	a94153f3 	ldp	x19, x20, [sp, #16]
     638:	a8c27bfd 	ldp	x29, x30, [sp], #32
     63c:	14000271 	b	1000 <uart_put12x>

0000000000000640 <dont_call_directly>:
     640:	a9bd7bfd 	stp	x29, x30, [sp, #-48]!
     644:	910003fd 	mov	x29, sp
     648:	f9000bf3 	str	x19, [sp, #16]
     64c:	aa0003f3 	mov	x19, x0
     650:	a90207e2 	stp	x2, x1, [sp, #32]
     654:	97ffffa5 	bl	4e8 <print_time>
     658:	b0000000 	adrp	x0, 1000 <uart_put12x>
     65c:	91172000 	add	x0, x0, #0x5c8
     660:	940002ca 	bl	1188 <uart_puts>
     664:	aa1303e0 	mov	x0, x19
     668:	940002b6 	bl	1140 <uart_put64x>
     66c:	b0000000 	adrp	x0, 1000 <uart_put12x>
     670:	91174000 	add	x0, x0, #0x5d0
     674:	940002c5 	bl	1188 <uart_puts>
     678:	f94017e1 	ldr	x1, [sp, #40]
     67c:	aa0103e0 	mov	x0, x1
     680:	940002c2 	bl	1188 <uart_puts>
     684:	f94013e2 	ldr	x2, [sp, #32]
     688:	aa0203e0 	mov	x0, x2
     68c:	940002ad 	bl	1140 <uart_put64x>
     690:	f9400bf3 	ldr	x19, [sp, #16]
     694:	b0000000 	adrp	x0, 1000 <uart_put12x>
     698:	a8c37bfd 	ldp	x29, x30, [sp], #48
     69c:	91176000 	add	x0, x0, #0x5d8
     6a0:	140002ba 	b	1188 <uart_puts>
     6a4:	d503201f 	nop

00000000000006a8 <panic>:
     6a8:	528000a3 	mov	w3, #0x5                   	// #5
     6ac:	6b03001f 	cmp	w0, w3
     6b0:	1a833000 	csel	w0, w0, w3, cc  // cc = lo, ul, last
     6b4:	f0000002 	adrp	x2, 3000 <queue+0x18e0>
     6b8:	913d4042 	add	x2, x2, #0xf50
     6bc:	a9be7bfd 	stp	x29, x30, [sp, #-32]!
     6c0:	910003fd 	mov	x29, sp
     6c4:	f860d840 	ldr	x0, [x2, w0, sxtw #3]
     6c8:	f9000fe1 	str	x1, [sp, #24]
     6cc:	940002af 	bl	1188 <uart_puts>
     6d0:	f9400fe1 	ldr	x1, [sp, #24]
     6d4:	aa0103e0 	mov	x0, x1
     6d8:	940002ac 	bl	1188 <uart_puts>
     6dc:	b0000000 	adrp	x0, 1000 <uart_put12x>
     6e0:	91176000 	add	x0, x0, #0x5d8
     6e4:	940002a9 	bl	1188 <uart_puts>
     6e8:	14000000 	b	6e8 <panic+0x40>
     6ec:	d503201f 	nop

00000000000006f0 <log>:
     6f0:	a9be7bfd 	stp	x29, x30, [sp, #-32]!
     6f4:	910003fd 	mov	x29, sp
     6f8:	f9000bf3 	str	x19, [sp, #16]
     6fc:	aa0003f3 	mov	x19, x0
     700:	97fffe74 	bl	d0 <get_core>
     704:	f100041f 	cmp	x0, #0x1
     708:	54000280 	b.eq	758 <log+0x68>  // b.none
     70c:	b4000360 	cbz	x0, 778 <log+0x88>
     710:	f100081f 	cmp	x0, #0x2
     714:	540002a0 	b.eq	768 <log+0x78>  // b.none
     718:	f1000c1f 	cmp	x0, #0x3
     71c:	54000361 	b.ne	788 <log+0x98>  // b.any
     720:	b0000000 	adrp	x0, 1000 <uart_put12x>
     724:	9117e000 	add	x0, x0, #0x5f8
     728:	94000298 	bl	1188 <uart_puts>
     72c:	97ffff6f 	bl	4e8 <print_time>
     730:	b0000000 	adrp	x0, 1000 <uart_put12x>
     734:	9118a000 	add	x0, x0, #0x628
     738:	94000294 	bl	1188 <uart_puts>
     73c:	aa1303e0 	mov	x0, x19
     740:	94000292 	bl	1188 <uart_puts>
     744:	f9400bf3 	ldr	x19, [sp, #16]
     748:	b0000000 	adrp	x0, 1000 <uart_put12x>
     74c:	a8c27bfd 	ldp	x29, x30, [sp], #32
     750:	91176000 	add	x0, x0, #0x5d8
     754:	1400028d 	b	1188 <uart_puts>
     758:	b0000000 	adrp	x0, 1000 <uart_put12x>
     75c:	9117a000 	add	x0, x0, #0x5e8
     760:	9400028a 	bl	1188 <uart_puts>
     764:	17fffff2 	b	72c <log+0x3c>
     768:	b0000000 	adrp	x0, 1000 <uart_put12x>
     76c:	9117c000 	add	x0, x0, #0x5f0
     770:	94000286 	bl	1188 <uart_puts>
     774:	17ffffee 	b	72c <log+0x3c>
     778:	b0000000 	adrp	x0, 1000 <uart_put12x>
     77c:	91178000 	add	x0, x0, #0x5e0
     780:	94000282 	bl	1188 <uart_puts>
     784:	17ffffea 	b	72c <log+0x3c>
     788:	b0000001 	adrp	x1, 1000 <uart_put12x>
     78c:	52800020 	mov	w0, #0x1                   	// #1
     790:	91180021 	add	x1, x1, #0x600
     794:	97ffffc5 	bl	6a8 <panic>

0000000000000798 <do_hex>:
     798:	a9bf7bfd 	stp	x29, x30, [sp, #-16]!
     79c:	910003fd 	mov	x29, sp
     7a0:	94000268 	bl	1140 <uart_put64x>
     7a4:	a8c17bfd 	ldp	x29, x30, [sp], #16
     7a8:	b0000000 	adrp	x0, 1000 <uart_put12x>
     7ac:	91176000 	add	x0, x0, #0x5d8
     7b0:	14000276 	b	1188 <uart_puts>
     7b4:	d503201f 	nop

00000000000007b8 <do_blink>:
     7b8:	14000104 	b	bc8 <blink_led_stall>
     7bc:	d503201f 	nop

00000000000007c0 <do_butter>:
     7c0:	a9bd7bfd 	stp	x29, x30, [sp, #-48]!
     7c4:	910003fd 	mov	x29, sp
     7c8:	a90153f3 	stp	x19, x20, [sp, #16]
     7cc:	90000014 	adrp	x20, 0 <_start>
     7d0:	912ea294 	add	x20, x20, #0xba8
     7d4:	f90013f5 	str	x21, [sp, #32]
     7d8:	97fffe66 	bl	170 <bring_timeoutq_current>
     7dc:	aa1403e2 	mov	x2, x20
     7e0:	d2800003 	mov	x3, #0x0                   	// #0
     7e4:	52800001 	mov	w1, #0x0                   	// #0
     7e8:	52800000 	mov	w0, #0x0                   	// #0
     7ec:	d28e3615 	mov	x21, #0x71b0                	// #29104
     7f0:	97fffe8c 	bl	220 <create_timeoutq_event>
     7f4:	f2a00175 	movk	x21, #0xb, lsl #16
     7f8:	aa1403e2 	mov	x2, x20
     7fc:	aa1503e3 	mov	x3, x21
     800:	2a1503e0 	mov	w0, w21
     804:	52800001 	mov	w1, #0x0                   	// #0
     808:	97fffe86 	bl	220 <create_timeoutq_event>
     80c:	90000013 	adrp	x19, 0 <_start>
     810:	529d6200 	mov	w0, #0xeb10                	// #60176
     814:	912ee273 	add	x19, x19, #0xbb8
     818:	aa1503e3 	mov	x3, x21
     81c:	aa1303e2 	mov	x2, x19
     820:	72a00120 	movk	w0, #0x9, lsl #16
     824:	52800001 	mov	w1, #0x0                   	// #0
     828:	d2884815 	mov	x21, #0x4240                	// #16960
     82c:	97fffe7d 	bl	220 <create_timeoutq_event>
     830:	f2a001f5 	movk	x21, #0xf, lsl #16
     834:	aa1403e2 	mov	x2, x20
     838:	aa1503e3 	mov	x3, x21
     83c:	2a1503e0 	mov	w0, w21
     840:	52800001 	mov	w1, #0x0                   	// #0
     844:	97fffe77 	bl	220 <create_timeoutq_event>
     848:	52977400 	mov	w0, #0xbba0                	// #48032
     84c:	aa1503e3 	mov	x3, x21
     850:	aa1303e2 	mov	x2, x19
     854:	52800001 	mov	w1, #0x0                   	// #0
     858:	72a001a0 	movk	w0, #0xd, lsl #16
     85c:	d29c6c15 	mov	x21, #0xe360                	// #58208
     860:	97fffe70 	bl	220 <create_timeoutq_event>
     864:	f2a002d5 	movk	x21, #0x16, lsl #16
     868:	aa1403e2 	mov	x2, x20
     86c:	aa1503e3 	mov	x3, x21
     870:	2a1503e0 	mov	w0, w21
     874:	52800001 	mov	w1, #0x0                   	// #0
     878:	97fffe6a 	bl	220 <create_timeoutq_event>
     87c:	528b9800 	mov	w0, #0x5cc0                	// #23744
     880:	aa1503e3 	mov	x3, x21
     884:	aa1303e2 	mov	x2, x19
     888:	52800001 	mov	w1, #0x0                   	// #0
     88c:	72a002a0 	movk	w0, #0x15, lsl #16
     890:	d2909015 	mov	x21, #0x8480                	// #33920
     894:	97fffe63 	bl	220 <create_timeoutq_event>
     898:	f2a003d5 	movk	x21, #0x1e, lsl #16
     89c:	aa1403e2 	mov	x2, x20
     8a0:	aa1503e3 	mov	x3, x21
     8a4:	2a1503e0 	mov	w0, w21
     8a8:	52800001 	mov	w1, #0x0                   	// #0
     8ac:	97fffe5d 	bl	220 <create_timeoutq_event>
     8b0:	529fbc00 	mov	w0, #0xfde0                	// #64992
     8b4:	aa1503e3 	mov	x3, x21
     8b8:	aa1303e2 	mov	x2, x19
     8bc:	52800001 	mov	w1, #0x0                   	// #0
     8c0:	72a00380 	movk	w0, #0x1c, lsl #16
     8c4:	97fffe57 	bl	220 <create_timeoutq_event>
     8c8:	aa1403e2 	mov	x2, x20
     8cc:	d28aa214 	mov	x20, #0x5510                	// #21776
     8d0:	f2a00454 	movk	x20, #0x22, lsl #16
     8d4:	52800001 	mov	w1, #0x0                   	// #0
     8d8:	aa1403e3 	mov	x3, x20
     8dc:	2a1403e0 	mov	w0, w20
     8e0:	97fffe50 	bl	220 <create_timeoutq_event>
     8e4:	5299ce00 	mov	w0, #0xce70                	// #52848
     8e8:	aa1403e3 	mov	x3, x20
     8ec:	aa1303e2 	mov	x2, x19
     8f0:	52800001 	mov	w1, #0x0                   	// #0
     8f4:	72a00400 	movk	w0, #0x20, lsl #16
     8f8:	97fffe4a 	bl	220 <create_timeoutq_event>
     8fc:	aa1403e3 	mov	x3, x20
     900:	aa1303e2 	mov	x2, x19
     904:	a94153f3 	ldp	x19, x20, [sp, #16]
     908:	528c4a00 	mov	w0, #0x6250                	// #25168
     90c:	f94013f5 	ldr	x21, [sp, #32]
     910:	52800001 	mov	w1, #0x0                   	// #0
     914:	a8c37bfd 	ldp	x29, x30, [sp], #48
     918:	72a004a0 	movk	w0, #0x25, lsl #16
     91c:	17fffe41 	b	220 <create_timeoutq_event>

0000000000000920 <do_string>:
     920:	a9be7bfd 	stp	x29, x30, [sp, #-32]!
     924:	910003fd 	mov	x29, sp
     928:	f9000fe0 	str	x0, [sp, #24]
     92c:	910063e0 	add	x0, sp, #0x18
     930:	94000216 	bl	1188 <uart_puts>
     934:	b0000000 	adrp	x0, 1000 <uart_put12x>
     938:	91176000 	add	x0, x0, #0x5d8
     93c:	94000213 	bl	1188 <uart_puts>
     940:	a8c27bfd 	ldp	x29, x30, [sp], #32
     944:	d65f03c0 	ret

0000000000000948 <notmain>:
     948:	a9bc7bfd 	stp	x29, x30, [sp, #-64]!
     94c:	910003fd 	mov	x29, sp
     950:	a90153f3 	stp	x19, x20, [sp, #16]
     954:	b0000013 	adrp	x19, 1000 <uart_put12x>
     958:	91176273 	add	x19, x19, #0x5d8
     95c:	a9025bf5 	stp	x21, x22, [sp, #32]
     960:	b0000015 	adrp	x21, 1000 <uart_put12x>
     964:	911ae2b5 	add	x21, x21, #0x6b8
     968:	a90363f7 	stp	x23, x24, [sp, #48]
     96c:	94000079 	bl	b50 <init_led>
     970:	9400021e 	bl	11e8 <init_uart>
     974:	94000131 	bl	e38 <init_timer>
     978:	b0000018 	adrp	x24, 1000 <uart_put12x>
     97c:	97fffec7 	bl	498 <init_errno>
     980:	b0000017 	adrp	x23, 1000 <uart_put12x>
     984:	97fffdd7 	bl	e0 <init_timeoutq>
     988:	911b2318 	add	x24, x24, #0x6c8
     98c:	52800140 	mov	w0, #0xa                   	// #10
     990:	9400008e 	bl	bc8 <blink_led_stall>
     994:	aa1303e0 	mov	x0, x19
     998:	940001fc 	bl	1188 <uart_puts>
     99c:	aa1303e0 	mov	x0, x19
     9a0:	940001fa 	bl	1188 <uart_puts>
     9a4:	b0000000 	adrp	x0, 1000 <uart_put12x>
     9a8:	911a6000 	add	x0, x0, #0x698
     9ac:	97ffff51 	bl	6f0 <log>
     9b0:	911ba2f7 	add	x23, x23, #0x6e8
     9b4:	b0000000 	adrp	x0, 1000 <uart_put12x>
     9b8:	9118c000 	add	x0, x0, #0x630
     9bc:	97ffff4d 	bl	6f0 <log>
     9c0:	b0000000 	adrp	x0, 1000 <uart_put12x>
     9c4:	91192000 	add	x0, x0, #0x648
     9c8:	97ffff4a 	bl	6f0 <log>
     9cc:	94000143 	bl	ed8 <uart_recv>
     9d0:	97fffdbb 	bl	bc <GETPC>
     9d4:	b0000001 	adrp	x1, 1000 <uart_put12x>
     9d8:	9119a021 	add	x1, x1, #0x668
     9dc:	d2800002 	mov	x2, #0x0                   	// #0
     9e0:	97ffff18 	bl	640 <dont_call_directly>
     9e4:	97fffdb6 	bl	bc <GETPC>
     9e8:	aa0003f4 	mov	x20, x0
     9ec:	d2800100 	mov	x0, #0x8                   	// #8
     9f0:	940001d4 	bl	1140 <uart_put64x>
     9f4:	aa1303e0 	mov	x0, x19
     9f8:	940001e4 	bl	1188 <uart_puts>
     9fc:	aa1403e0 	mov	x0, x20
     a00:	940001d0 	bl	1140 <uart_put64x>
     a04:	aa1303e0 	mov	x0, x19
     a08:	940001e0 	bl	1188 <uart_puts>
     a0c:	90000014 	adrp	x20, 0 <_start>
     a10:	911e6294 	add	x20, x20, #0x798
     a14:	97fffdd7 	bl	170 <bring_timeoutq_current>
     a18:	aa1403e2 	mov	x2, x20
     a1c:	52812001 	mov	w1, #0x900                 	// #2304
     a20:	52909000 	mov	w0, #0x8480                	// #33920
     a24:	72a007a1 	movk	w1, #0x3d, lsl #16
     a28:	d2800063 	mov	x3, #0x3                   	// #3
     a2c:	72a003c0 	movk	w0, #0x1e, lsl #16
     a30:	97fffdfc 	bl	220 <create_timeoutq_event>
     a34:	97fffdcf 	bl	170 <bring_timeoutq_current>
     a38:	90000002 	adrp	x2, 0 <_start>
     a3c:	52812001 	mov	w1, #0x900                 	// #2304
     a40:	911ee042 	add	x2, x2, #0x7b8
     a44:	5298d800 	mov	w0, #0xc6c0                	// #50880
     a48:	72a007a1 	movk	w1, #0x3d, lsl #16
     a4c:	d2800283 	mov	x3, #0x14                  	// #20
     a50:	72a005a0 	movk	w0, #0x2d, lsl #16
     a54:	97fffdf3 	bl	220 <create_timeoutq_event>
     a58:	97fffdc6 	bl	170 <bring_timeoutq_current>
     a5c:	d28cf123 	mov	x3, #0x6789                	// #26505
     a60:	52812001 	mov	w1, #0x900                 	// #2304
     a64:	f2a468a3 	movk	x3, #0x2345, lsl #16
     a68:	aa1403e2 	mov	x2, x20
     a6c:	72a007a1 	movk	w1, #0x3d, lsl #16
     a70:	f2dbc023 	movk	x3, #0xde01, lsl #32
     a74:	2a0103e0 	mov	w0, w1
     a78:	f2e15783 	movk	x3, #0xabc, lsl #48
     a7c:	97fffde9 	bl	220 <create_timeoutq_event>
     a80:	b0000014 	adrp	x20, 1000 <uart_put12x>
     a84:	911a8294 	add	x20, x20, #0x6a0
     a88:	97fffdba 	bl	170 <bring_timeoutq_current>
     a8c:	d28ca903 	mov	x3, #0x6548                	// #25928
     a90:	90000002 	adrp	x2, 0 <_start>
     a94:	f2ad8d83 	movk	x3, #0x6c6c, lsl #16
     a98:	91248042 	add	x2, x2, #0x920
     a9c:	52812001 	mov	w1, #0x900                 	// #2304
     aa0:	f2c5cde3 	movk	x3, #0x2e6f, lsl #32
     aa4:	72a007a1 	movk	w1, #0x3d, lsl #16
     aa8:	52896800 	mov	w0, #0x4b40                	// #19264
     aac:	72a00980 	movk	w0, #0x4c, lsl #16
     ab0:	97fffddc 	bl	220 <create_timeoutq_event>
     ab4:	b0000000 	adrp	x0, 1000 <uart_put12x>
     ab8:	9119e000 	add	x0, x0, #0x678
     abc:	940001b3 	bl	1188 <uart_puts>
     ac0:	aa1303e0 	mov	x0, x19
     ac4:	940001b1 	bl	1188 <uart_puts>
     ac8:	97fffd7d 	bl	bc <GETPC>
     acc:	aa1403e1 	mov	x1, x20
     ad0:	d2800002 	mov	x2, #0x0                   	// #0
     ad4:	97fffedb 	bl	640 <dont_call_directly>
     ad8:	97fffe42 	bl	3e0 <handle_timeoutq_event>
     adc:	34000160 	cbz	w0, b08 <notmain+0x1c0>
     ae0:	97fffd77 	bl	bc <GETPC>
     ae4:	aa1503e1 	mov	x1, x21
     ae8:	d2800002 	mov	x2, #0x0                   	// #0
     aec:	97fffed5 	bl	640 <dont_call_directly>
     af0:	97fffd73 	bl	bc <GETPC>
     af4:	aa1403e1 	mov	x1, x20
     af8:	d2800002 	mov	x2, #0x0                   	// #0
     afc:	97fffed1 	bl	640 <dont_call_directly>
     b00:	97fffe38 	bl	3e0 <handle_timeoutq_event>
     b04:	35fffee0 	cbnz	w0, ae0 <notmain+0x198>
     b08:	97fffd9a 	bl	170 <bring_timeoutq_current>
     b0c:	93407c13 	sxtw	x19, w0
     b10:	97fffd6b 	bl	bc <GETPC>
     b14:	aa1803e1 	mov	x1, x24
     b18:	aa1303e2 	mov	x2, x19
     b1c:	97fffec9 	bl	640 <dont_call_directly>
     b20:	940000d0 	bl	e60 <get_time>
     b24:	aa0003f6 	mov	x22, x0
     b28:	aa1303e0 	mov	x0, x19
     b2c:	940000cf 	bl	e68 <wait>
     b30:	97fffd63 	bl	bc <GETPC>
     b34:	aa0003f3 	mov	x19, x0
     b38:	940000ca 	bl	e60 <get_time>
     b3c:	cb160002 	sub	x2, x0, x22
     b40:	aa1703e1 	mov	x1, x23
     b44:	aa1303e0 	mov	x0, x19
     b48:	97fffebe 	bl	640 <dont_call_directly>
     b4c:	17ffffdf 	b	ac8 <notmain+0x180>

0000000000000b50 <init_led>:
     b50:	a9be7bfd 	stp	x29, x30, [sp, #-32]!
     b54:	910003fd 	mov	x29, sp
     b58:	f9000bf3 	str	x19, [sp, #16]
     b5c:	52800113 	mov	w19, #0x8                   	// #8
     b60:	72a7e413 	movk	w19, #0x3f20, lsl #16
     b64:	2a1303e0 	mov	w0, w19
     b68:	97fffd53 	bl	b4 <GET32>
     b6c:	12027000 	and	w0, w0, #0xc7ffffff
     b70:	32050001 	orr	w1, w0, #0x8000000
     b74:	2a1303e0 	mov	w0, w19
     b78:	97fffd4d 	bl	ac <PUT32>
     b7c:	52800380 	mov	w0, #0x1c                  	// #28
     b80:	52a40001 	mov	w1, #0x20000000            	// #536870912
     b84:	72a7e400 	movk	w0, #0x3f20, lsl #16
     b88:	97fffd49 	bl	ac <PUT32>
     b8c:	f9400bf3 	ldr	x19, [sp, #16]
     b90:	52800500 	mov	w0, #0x28                  	// #40
     b94:	a8c27bfd 	ldp	x29, x30, [sp], #32
     b98:	52a40001 	mov	w1, #0x20000000            	// #536870912
     b9c:	72a7e400 	movk	w0, #0x3f20, lsl #16
     ba0:	17fffd43 	b	ac <PUT32>
     ba4:	d503201f 	nop

0000000000000ba8 <led_on>:
     ba8:	52800380 	mov	w0, #0x1c                  	// #28
     bac:	52a40001 	mov	w1, #0x20000000            	// #536870912
     bb0:	72a7e400 	movk	w0, #0x3f20, lsl #16
     bb4:	17fffd3e 	b	ac <PUT32>

0000000000000bb8 <led_off>:
     bb8:	52800500 	mov	w0, #0x28                  	// #40
     bbc:	52a40001 	mov	w1, #0x20000000            	// #536870912
     bc0:	72a7e400 	movk	w0, #0x3f20, lsl #16
     bc4:	17fffd3a 	b	ac <PUT32>

0000000000000bc8 <blink_led_stall>:
     bc8:	a9bd7bfd 	stp	x29, x30, [sp, #-48]!
     bcc:	910003fd 	mov	x29, sp
     bd0:	a90153f3 	stp	x19, x20, [sp, #16]
     bd4:	2a0003f4 	mov	w20, w0
     bd8:	52800100 	mov	w0, #0x8                   	// #8
     bdc:	72a7e400 	movk	w0, #0x3f20, lsl #16
     be0:	97fffd35 	bl	b4 <GET32>
     be4:	12027001 	and	w1, w0, #0xc7ffffff
     be8:	52800100 	mov	w0, #0x8                   	// #8
     bec:	32050021 	orr	w1, w1, #0x8000000
     bf0:	72a7e400 	movk	w0, #0x3f20, lsl #16
     bf4:	97fffd2e 	bl	ac <PUT32>
     bf8:	52800500 	mov	w0, #0x28                  	// #40
     bfc:	52a40001 	mov	w1, #0x20000000            	// #536870912
     c00:	72a7e400 	movk	w0, #0x3f20, lsl #16
     c04:	97fffd2a 	bl	ac <PUT32>
     c08:	340002d4 	cbz	w20, c60 <blink_led_stall+0x98>
     c0c:	51000693 	sub	w19, w20, #0x1
     c10:	52800514 	mov	w20, #0x28                  	// #40
     c14:	f90013f5 	str	x21, [sp, #32]
     c18:	52800395 	mov	w21, #0x1c                  	// #28
     c1c:	72a7e414 	movk	w20, #0x3f20, lsl #16
     c20:	72a7e415 	movk	w21, #0x3f20, lsl #16
     c24:	d503201f 	nop
     c28:	52a40001 	mov	w1, #0x20000000            	// #536870912
     c2c:	2a1503e0 	mov	w0, w21
     c30:	97fffd1f 	bl	ac <PUT32>
     c34:	51000673 	sub	w19, w19, #0x1
     c38:	d2986a00 	mov	x0, #0xc350                	// #50000
     c3c:	9400008b 	bl	e68 <wait>
     c40:	52a40001 	mov	w1, #0x20000000            	// #536870912
     c44:	2a1403e0 	mov	w0, w20
     c48:	97fffd19 	bl	ac <PUT32>
     c4c:	d2986a00 	mov	x0, #0xc350                	// #50000
     c50:	94000086 	bl	e68 <wait>
     c54:	3100067f 	cmn	w19, #0x1
     c58:	54fffe81 	b.ne	c28 <blink_led_stall+0x60>  // b.any
     c5c:	f94013f5 	ldr	x21, [sp, #32]
     c60:	a94153f3 	ldp	x19, x20, [sp, #16]
     c64:	a8c37bfd 	ldp	x29, x30, [sp], #48
     c68:	d65f03c0 	ret
     c6c:	00000000 	.inst	0x00000000 ; undefined

0000000000000c70 <ll_pop>:
     c70:	aa0003e1 	mov	x1, x0
     c74:	f9400400 	ldr	x0, [x0, #8]
     c78:	eb01001f 	cmp	x0, x1
     c7c:	540000a0 	b.eq	c90 <ll_pop+0x20>  // b.none
     c80:	a9400402 	ldp	x2, x1, [x0]
     c84:	f9000441 	str	x1, [x2, #8]
     c88:	f9000022 	str	x2, [x1]
     c8c:	d65f03c0 	ret
     c90:	d2800000 	mov	x0, #0x0                   	// #0
     c94:	d65f03c0 	ret

0000000000000c98 <ll_last>:
     c98:	f9400401 	ldr	x1, [x0, #8]
     c9c:	eb00003f 	cmp	x1, x0
     ca0:	54000060 	b.eq	cac <ll_last+0x14>  // b.none
     ca4:	f9400000 	ldr	x0, [x0]
     ca8:	d65f03c0 	ret
     cac:	d2800000 	mov	x0, #0x0                   	// #0
     cb0:	d65f03c0 	ret
     cb4:	d503201f 	nop

0000000000000cb8 <ll_first>:
     cb8:	f9400401 	ldr	x1, [x0, #8]
     cbc:	eb00003f 	cmp	x1, x0
     cc0:	9a9f1020 	csel	x0, x1, xzr, ne  // ne = any
     cc4:	d65f03c0 	ret

0000000000000cc8 <ll_r_insert>:
     cc8:	aa0003e2 	mov	x2, x0
     ccc:	aa0103e0 	mov	x0, x1
     cd0:	f9400443 	ldr	x3, [x2, #8]
     cd4:	f9000061 	str	x1, [x3]
     cd8:	f9000423 	str	x3, [x1, #8]
     cdc:	f9000441 	str	x1, [x2, #8]
     ce0:	f9000022 	str	x2, [x1]
     ce4:	d65f03c0 	ret

0000000000000ce8 <ll_detach>:
     ce8:	f9400402 	ldr	x2, [x0, #8]
     cec:	eb00005f 	cmp	x2, x0
     cf0:	fa411004 	ccmp	x0, x1, #0x4, ne  // ne = any
     cf4:	540000c0 	b.eq	d0c <ll_detach+0x24>  // b.none
     cf8:	aa0103e0 	mov	x0, x1
     cfc:	a9400422 	ldp	x2, x1, [x1]
     d00:	f9000441 	str	x1, [x2, #8]
     d04:	f9000022 	str	x2, [x1]
     d08:	d65f03c0 	ret
     d0c:	d2800000 	mov	x0, #0x0                   	// #0
     d10:	d65f03c0 	ret
     d14:	d503201f 	nop

0000000000000d18 <ll_assert>:
     d18:	a9be7bfd 	stp	x29, x30, [sp, #-32]!
     d1c:	910003fd 	mov	x29, sp
     d20:	f9000bf3 	str	x19, [sp, #16]
     d24:	aa0003f3 	mov	x19, x0
     d28:	b40000a0 	cbz	x0, d3c <ll_assert+0x24>
     d2c:	aa1303e0 	mov	x0, x19
     d30:	f9400bf3 	ldr	x19, [sp, #16]
     d34:	a8c27bfd 	ldp	x29, x30, [sp], #32
     d38:	d65f03c0 	ret
     d3c:	b0000001 	adrp	x1, 1000 <uart_put12x>
     d40:	52800020 	mov	w0, #0x1                   	// #1
     d44:	911be021 	add	x1, x1, #0x6f8
     d48:	97fffe58 	bl	6a8 <panic>
     d4c:	17fffff8 	b	d2c <ll_assert+0x14>

0000000000000d50 <ll_insert>:
     d50:	a9bd7bfd 	stp	x29, x30, [sp, #-48]!
     d54:	910003fd 	mov	x29, sp
     d58:	a90153f3 	stp	x19, x20, [sp, #16]
     d5c:	aa0003f4 	mov	x20, x0
     d60:	f9400413 	ldr	x19, [x0, #8]
     d64:	a9025bf5 	stp	x21, x22, [sp, #32]
     d68:	aa0103f5 	mov	x21, x1
     d6c:	aa0203f6 	mov	x22, x2
     d70:	eb00027f 	cmp	x19, x0
     d74:	540004e0 	b.eq	e10 <ll_insert+0xc0>  // b.none
     d78:	f9400661 	ldr	x1, [x19, #8]
     d7c:	aa1503e0 	mov	x0, x21
     d80:	eb14003f 	cmp	x1, x20
     d84:	540001e0 	b.eq	dc0 <ll_insert+0x70>  // b.none
     d88:	d63f02c0 	blr	x22
     d8c:	37f802e0 	tbnz	w0, #31, de8 <ll_insert+0x98>
     d90:	f9400673 	ldr	x19, [x19, #8]
     d94:	eb13029f 	cmp	x20, x19
     d98:	54ffff01 	b.ne	d78 <ll_insert+0x28>  // b.any
     d9c:	52800020 	mov	w0, #0x1                   	// #1
     da0:	b0000001 	adrp	x1, 1000 <uart_put12x>
     da4:	911c2021 	add	x1, x1, #0x708
     da8:	97fffe40 	bl	6a8 <panic>
     dac:	d2800000 	mov	x0, #0x0                   	// #0
     db0:	a94153f3 	ldp	x19, x20, [sp, #16]
     db4:	a9425bf5 	ldp	x21, x22, [sp, #32]
     db8:	a8c37bfd 	ldp	x29, x30, [sp], #48
     dbc:	d65f03c0 	ret
     dc0:	f9400281 	ldr	x1, [x20]
     dc4:	a94153f3 	ldp	x19, x20, [sp, #16]
     dc8:	f9400422 	ldr	x2, [x1, #8]
     dcc:	f9000055 	str	x21, [x2]
     dd0:	f90006a2 	str	x2, [x21, #8]
     dd4:	f9000435 	str	x21, [x1, #8]
     dd8:	f90002a1 	str	x1, [x21]
     ddc:	a9425bf5 	ldp	x21, x22, [sp, #32]
     de0:	a8c37bfd 	ldp	x29, x30, [sp], #48
     de4:	d65f03c0 	ret
     de8:	f9400661 	ldr	x1, [x19, #8]
     dec:	aa1503e0 	mov	x0, x21
     df0:	f9000035 	str	x21, [x1]
     df4:	f90006a1 	str	x1, [x21, #8]
     df8:	f9000675 	str	x21, [x19, #8]
     dfc:	f90002b3 	str	x19, [x21]
     e00:	a94153f3 	ldp	x19, x20, [sp, #16]
     e04:	a9425bf5 	ldp	x21, x22, [sp, #32]
     e08:	a8c37bfd 	ldp	x29, x30, [sp], #48
     e0c:	d65f03c0 	ret
     e10:	f9000261 	str	x1, [x19]
     e14:	aa0103e0 	mov	x0, x1
     e18:	f9000433 	str	x19, [x1, #8]
     e1c:	f9000661 	str	x1, [x19, #8]
     e20:	f9000033 	str	x19, [x1]
     e24:	a94153f3 	ldp	x19, x20, [sp, #16]
     e28:	a9425bf5 	ldp	x21, x22, [sp, #32]
     e2c:	a8c37bfd 	ldp	x29, x30, [sp], #48
     e30:	d65f03c0 	ret
     e34:	00000000 	.inst	0x00000000 ; undefined

0000000000000e38 <init_timer>:
     e38:	d65f03c0 	ret
     e3c:	d503201f 	nop

0000000000000e40 <wait_cycles>:
     e40:	340000c0 	cbz	w0, e58 <wait_cycles+0x18>
     e44:	51000400 	sub	w0, w0, #0x1
     e48:	d503201f 	nop
     e4c:	51000400 	sub	w0, w0, #0x1
     e50:	3100041f 	cmn	w0, #0x1
     e54:	54ffffa1 	b.ne	e48 <wait_cycles+0x8>  // b.any
     e58:	d65f03c0 	ret
     e5c:	d503201f 	nop

0000000000000e60 <get_time>:
     e60:	d53be020 	mrs	x0, cntpct_el0
     e64:	d65f03c0 	ret

0000000000000e68 <wait>:
     e68:	d53be021 	mrs	x1, cntpct_el0
     e6c:	8b010000 	add	x0, x0, x1
     e70:	d53be021 	mrs	x1, cntpct_el0
     e74:	eb01001f 	cmp	x0, x1
     e78:	54ffffc8 	b.hi	e70 <wait+0x8>  // b.pmore
     e7c:	d65f03c0 	ret

0000000000000e80 <var_wait>:
     e80:	d53be001 	mrs	x1, cntfrq_el0
     e84:	d53be023 	mrs	x3, cntpct_el0
     e88:	d29ef9e2 	mov	x2, #0xf7cf                	// #63439
     e8c:	d343fc21 	lsr	x1, x1, #3
     e90:	f2bc6a62 	movk	x2, #0xe353, lsl #16
     e94:	f2d374a2 	movk	x2, #0x9ba5, lsl #32
     e98:	f2e41882 	movk	x2, #0x20c4, lsl #48
     e9c:	9bc27c21 	umulh	x1, x1, x2
     ea0:	d344fc21 	lsr	x1, x1, #4
     ea4:	9b007c20 	mul	x0, x1, x0
     ea8:	d343fc00 	lsr	x0, x0, #3
     eac:	9bc27c00 	umulh	x0, x0, x2
     eb0:	8b401060 	add	x0, x3, x0, lsr #4
     eb4:	d503201f 	nop
     eb8:	d53be021 	mrs	x1, cntpct_el0
     ebc:	eb01001f 	cmp	x0, x1
     ec0:	54ffffc8 	b.hi	eb8 <var_wait+0x38>  // b.pmore
     ec4:	d65f03c0 	ret

0000000000000ec8 <uart_lcr>:
     ec8:	528a0a80 	mov	w0, #0x5054                	// #20564
     ecc:	72a7e420 	movk	w0, #0x3f21, lsl #16
     ed0:	17fffc79 	b	b4 <GET32>
     ed4:	d503201f 	nop

0000000000000ed8 <uart_recv>:
     ed8:	a9be7bfd 	stp	x29, x30, [sp, #-32]!
     edc:	910003fd 	mov	x29, sp
     ee0:	f9000bf3 	str	x19, [sp, #16]
     ee4:	528a0a93 	mov	w19, #0x5054                	// #20564
     ee8:	72a7e433 	movk	w19, #0x3f21, lsl #16
     eec:	d503201f 	nop
     ef0:	2a1303e0 	mov	w0, w19
     ef4:	97fffc70 	bl	b4 <GET32>
     ef8:	7200001f 	tst	w0, #0x1
     efc:	54ffffa0 	b.eq	ef0 <uart_recv+0x18>  // b.none
     f00:	528a0800 	mov	w0, #0x5040                	// #20544
     f04:	72a7e420 	movk	w0, #0x3f21, lsl #16
     f08:	97fffc6b 	bl	b4 <GET32>
     f0c:	12001c00 	and	w0, w0, #0xff
     f10:	f9400bf3 	ldr	x19, [sp, #16]
     f14:	a8c27bfd 	ldp	x29, x30, [sp], #32
     f18:	d65f03c0 	ret
     f1c:	d503201f 	nop

0000000000000f20 <uart_check>:
     f20:	a9bf7bfd 	stp	x29, x30, [sp, #-16]!
     f24:	528a0a80 	mov	w0, #0x5054                	// #20564
     f28:	72a7e420 	movk	w0, #0x3f21, lsl #16
     f2c:	910003fd 	mov	x29, sp
     f30:	97fffc61 	bl	b4 <GET32>
     f34:	12000000 	and	w0, w0, #0x1
     f38:	a8c17bfd 	ldp	x29, x30, [sp], #16
     f3c:	d65f03c0 	ret

0000000000000f40 <uart_send>:
     f40:	a9be7bfd 	stp	x29, x30, [sp, #-32]!
     f44:	910003fd 	mov	x29, sp
     f48:	a90153f3 	stp	x19, x20, [sp, #16]
     f4c:	528a0a93 	mov	w19, #0x5054                	// #20564
     f50:	2a0003f4 	mov	w20, w0
     f54:	72a7e433 	movk	w19, #0x3f21, lsl #16
     f58:	2a1303e0 	mov	w0, w19
     f5c:	97fffc56 	bl	b4 <GET32>
     f60:	721b001f 	tst	w0, #0x20
     f64:	54ffffa0 	b.eq	f58 <uart_send+0x18>  // b.none
     f68:	2a1403e1 	mov	w1, w20
     f6c:	528a0800 	mov	w0, #0x5040                	// #20544
     f70:	a94153f3 	ldp	x19, x20, [sp, #16]
     f74:	72a7e420 	movk	w0, #0x3f21, lsl #16
     f78:	a8c27bfd 	ldp	x29, x30, [sp], #32
     f7c:	17fffc4c 	b	ac <PUT32>

0000000000000f80 <uart_flush>:
     f80:	a9be7bfd 	stp	x29, x30, [sp, #-32]!
     f84:	910003fd 	mov	x29, sp
     f88:	f9000bf3 	str	x19, [sp, #16]
     f8c:	528a0a93 	mov	w19, #0x5054                	// #20564
     f90:	72a7e433 	movk	w19, #0x3f21, lsl #16
     f94:	d503201f 	nop
     f98:	2a1303e0 	mov	w0, w19
     f9c:	97fffc46 	bl	b4 <GET32>
     fa0:	7218001f 	tst	w0, #0x100
     fa4:	54ffffa1 	b.ne	f98 <uart_flush+0x18>  // b.any
     fa8:	f9400bf3 	ldr	x19, [sp, #16]
     fac:	a8c27bfd 	ldp	x29, x30, [sp], #32
     fb0:	d65f03c0 	ret
     fb4:	d503201f 	nop

0000000000000fb8 <uart_put8x>:
     fb8:	a9be7bfd 	stp	x29, x30, [sp, #-32]!
     fbc:	910003fd 	mov	x29, sp
     fc0:	f9000bf3 	str	x19, [sp, #16]
     fc4:	2a0003f3 	mov	w19, w0
     fc8:	d3441e61 	ubfx	x1, x19, #4, #4
     fcc:	7100243f 	cmp	w1, #0x9
     fd0:	1100c020 	add	w0, w1, #0x30
     fd4:	1100dc21 	add	w1, w1, #0x37
     fd8:	1a808020 	csel	w0, w1, w0, hi  // hi = pmore
     fdc:	97ffffd9 	bl	f40 <uart_send>
     fe0:	12000e61 	and	w1, w19, #0xf
     fe4:	f9400bf3 	ldr	x19, [sp, #16]
     fe8:	7100283f 	cmp	w1, #0xa
     fec:	a8c27bfd 	ldp	x29, x30, [sp], #32
     ff0:	1100dc20 	add	w0, w1, #0x37
     ff4:	1100c021 	add	w1, w1, #0x30
     ff8:	1a803020 	csel	w0, w1, w0, cc  // cc = lo, ul, last
     ffc:	17ffffd1 	b	f40 <uart_send>

0000000000001000 <uart_put12x>:
    1000:	a9be7bfd 	stp	x29, x30, [sp, #-32]!
    1004:	910003fd 	mov	x29, sp
    1008:	a90153f3 	stp	x19, x20, [sp, #16]
    100c:	2a0003f4 	mov	w20, w0
    1010:	52800193 	mov	w19, #0xc                   	// #12
    1014:	51001273 	sub	w19, w19, #0x4
    1018:	1ad32681 	lsr	w1, w20, w19
    101c:	12000c21 	and	w1, w1, #0xf
    1020:	7100283f 	cmp	w1, #0xa
    1024:	1100dc20 	add	w0, w1, #0x37
    1028:	1100c021 	add	w1, w1, #0x30
    102c:	1a803020 	csel	w0, w1, w0, cc  // cc = lo, ul, last
    1030:	97ffffc4 	bl	f40 <uart_send>
    1034:	35ffff13 	cbnz	w19, 1014 <uart_put12x+0x14>
    1038:	a94153f3 	ldp	x19, x20, [sp, #16]
    103c:	a8c27bfd 	ldp	x29, x30, [sp], #32
    1040:	d65f03c0 	ret
    1044:	d503201f 	nop

0000000000001048 <uart_put2d>:
    1048:	a9be7bfd 	stp	x29, x30, [sp, #-32]!
    104c:	910003fd 	mov	x29, sp
    1050:	a90153f3 	stp	x19, x20, [sp, #16]
    1054:	aa0003f4 	mov	x20, x0
    1058:	529999a0 	mov	w0, #0xcccd                	// #52429
    105c:	72b99980 	movk	w0, #0xcccc, lsl #16
    1060:	9ba07e93 	umull	x19, w20, w0
    1064:	d363fe73 	lsr	x19, x19, #35
    1068:	9ba07e60 	umull	x0, w19, w0
    106c:	d363fc00 	lsr	x0, x0, #35
    1070:	0b000800 	add	w0, w0, w0, lsl #2
    1074:	4b000660 	sub	w0, w19, w0, lsl #1
    1078:	0b130a73 	add	w19, w19, w19, lsl #2
    107c:	1100c000 	add	w0, w0, #0x30
    1080:	97ffffb0 	bl	f40 <uart_send>
    1084:	4b130680 	sub	w0, w20, w19, lsl #1
    1088:	a94153f3 	ldp	x19, x20, [sp, #16]
    108c:	1100c000 	add	w0, w0, #0x30
    1090:	a8c27bfd 	ldp	x29, x30, [sp], #32
    1094:	17ffffab 	b	f40 <uart_send>

0000000000001098 <uart_put3d>:
    1098:	a9bd7bfd 	stp	x29, x30, [sp, #-48]!
    109c:	910003fd 	mov	x29, sp
    10a0:	a9025bf5 	stp	x21, x22, [sp, #32]
    10a4:	529999b5 	mov	w21, #0xcccd                	// #52429
    10a8:	2a0003f6 	mov	w22, w0
    10ac:	72b99995 	movk	w21, #0xcccc, lsl #16
    10b0:	a90153f3 	stp	x19, x20, [sp, #16]
    10b4:	52800074 	mov	w20, #0x3                   	// #3
    10b8:	52800c93 	mov	w19, #0x64                  	// #100
    10bc:	1ad30ac1 	udiv	w1, w22, w19
    10c0:	9bb57e73 	umull	x19, w19, w21
    10c4:	d363fe73 	lsr	x19, x19, #35
    10c8:	9bb57c20 	umull	x0, w1, w21
    10cc:	d363fc00 	lsr	x0, x0, #35
    10d0:	0b000800 	add	w0, w0, w0, lsl #2
    10d4:	4b000420 	sub	w0, w1, w0, lsl #1
    10d8:	1100c000 	add	w0, w0, #0x30
    10dc:	97ffff99 	bl	f40 <uart_send>
    10e0:	71000694 	subs	w20, w20, #0x1
    10e4:	54fffec1 	b.ne	10bc <uart_put3d+0x24>  // b.any
    10e8:	a94153f3 	ldp	x19, x20, [sp, #16]
    10ec:	a9425bf5 	ldp	x21, x22, [sp, #32]
    10f0:	a8c37bfd 	ldp	x29, x30, [sp], #48
    10f4:	d65f03c0 	ret

00000000000010f8 <uart_put32x>:
    10f8:	a9be7bfd 	stp	x29, x30, [sp, #-32]!
    10fc:	910003fd 	mov	x29, sp
    1100:	a90153f3 	stp	x19, x20, [sp, #16]
    1104:	2a0003f4 	mov	w20, w0
    1108:	52800413 	mov	w19, #0x20                  	// #32
    110c:	d503201f 	nop
    1110:	51001273 	sub	w19, w19, #0x4
    1114:	1ad32681 	lsr	w1, w20, w19
    1118:	12000c21 	and	w1, w1, #0xf
    111c:	7100283f 	cmp	w1, #0xa
    1120:	1100dc20 	add	w0, w1, #0x37
    1124:	1100c021 	add	w1, w1, #0x30
    1128:	1a803020 	csel	w0, w1, w0, cc  // cc = lo, ul, last
    112c:	97ffff85 	bl	f40 <uart_send>
    1130:	35ffff13 	cbnz	w19, 1110 <uart_put32x+0x18>
    1134:	a94153f3 	ldp	x19, x20, [sp, #16]
    1138:	a8c27bfd 	ldp	x29, x30, [sp], #32
    113c:	d65f03c0 	ret

0000000000001140 <uart_put64x>:
    1140:	a9be7bfd 	stp	x29, x30, [sp, #-32]!
    1144:	910003fd 	mov	x29, sp
    1148:	a90153f3 	stp	x19, x20, [sp, #16]
    114c:	aa0003f4 	mov	x20, x0
    1150:	52800813 	mov	w19, #0x40                  	// #64
    1154:	d503201f 	nop
    1158:	51001273 	sub	w19, w19, #0x4
    115c:	9ad32681 	lsr	x1, x20, x19
    1160:	12000c21 	and	w1, w1, #0xf
    1164:	7100283f 	cmp	w1, #0xa
    1168:	1100dc20 	add	w0, w1, #0x37
    116c:	1100c021 	add	w1, w1, #0x30
    1170:	1a803020 	csel	w0, w1, w0, cc  // cc = lo, ul, last
    1174:	97ffff73 	bl	f40 <uart_send>
    1178:	35ffff13 	cbnz	w19, 1158 <uart_put64x+0x18>
    117c:	a94153f3 	ldp	x19, x20, [sp, #16]
    1180:	a8c27bfd 	ldp	x29, x30, [sp], #32
    1184:	d65f03c0 	ret

0000000000001188 <uart_puts>:
    1188:	a9be7bfd 	stp	x29, x30, [sp, #-32]!
    118c:	910003fd 	mov	x29, sp
    1190:	a90153f3 	stp	x19, x20, [sp, #16]
    1194:	39400013 	ldrb	w19, [x0]
    1198:	34000213 	cbz	w19, 11d8 <uart_puts+0x50>
    119c:	aa0003f4 	mov	x20, x0
    11a0:	14000005 	b	11b4 <uart_puts+0x2c>
    11a4:	2a1303e0 	mov	w0, w19
    11a8:	97ffff66 	bl	f40 <uart_send>
    11ac:	39400293 	ldrb	w19, [x20]
    11b0:	34000153 	cbz	w19, 11d8 <uart_puts+0x50>
    11b4:	91000694 	add	x20, x20, #0x1
    11b8:	71002a7f 	cmp	w19, #0xa
    11bc:	54ffff41 	b.ne	11a4 <uart_puts+0x1c>  // b.any
    11c0:	528001a0 	mov	w0, #0xd                   	// #13
    11c4:	97ffff5f 	bl	f40 <uart_send>
    11c8:	2a1303e0 	mov	w0, w19
    11cc:	97ffff5d 	bl	f40 <uart_send>
    11d0:	39400293 	ldrb	w19, [x20]
    11d4:	35ffff13 	cbnz	w19, 11b4 <uart_puts+0x2c>
    11d8:	a94153f3 	ldp	x19, x20, [sp, #16]
    11dc:	a8c27bfd 	ldp	x29, x30, [sp], #32
    11e0:	d65f03c0 	ret
    11e4:	d503201f 	nop

00000000000011e8 <init_uart>:
    11e8:	a9be7bfd 	stp	x29, x30, [sp, #-32]!
    11ec:	528a0080 	mov	w0, #0x5004                	// #20484
    11f0:	52800021 	mov	w1, #0x1                   	// #1
    11f4:	910003fd 	mov	x29, sp
    11f8:	72a7e420 	movk	w0, #0x3f21, lsl #16
    11fc:	f9000bf3 	str	x19, [sp, #16]
    1200:	97fffbab 	bl	ac <PUT32>
    1204:	52800013 	mov	w19, #0x0                   	// #0
    1208:	528a0880 	mov	w0, #0x5044                	// #20548
    120c:	52800001 	mov	w1, #0x0                   	// #0
    1210:	72a7e420 	movk	w0, #0x3f21, lsl #16
    1214:	97fffba6 	bl	ac <PUT32>
    1218:	528a0c00 	mov	w0, #0x5060                	// #20576
    121c:	52800001 	mov	w1, #0x0                   	// #0
    1220:	72a7e420 	movk	w0, #0x3f21, lsl #16
    1224:	97fffba2 	bl	ac <PUT32>
    1228:	528a0980 	mov	w0, #0x504c                	// #20556
    122c:	52800061 	mov	w1, #0x3                   	// #3
    1230:	72a7e420 	movk	w0, #0x3f21, lsl #16
    1234:	97fffb9e 	bl	ac <PUT32>
    1238:	528a0a00 	mov	w0, #0x5050                	// #20560
    123c:	52800001 	mov	w1, #0x0                   	// #0
    1240:	72a7e420 	movk	w0, #0x3f21, lsl #16
    1244:	97fffb9a 	bl	ac <PUT32>
    1248:	528a0880 	mov	w0, #0x5044                	// #20548
    124c:	52800001 	mov	w1, #0x0                   	// #0
    1250:	72a7e420 	movk	w0, #0x3f21, lsl #16
    1254:	97fffb96 	bl	ac <PUT32>
    1258:	528a0900 	mov	w0, #0x5048                	// #20552
    125c:	528018c1 	mov	w1, #0xc6                  	// #198
    1260:	72a7e420 	movk	w0, #0x3f21, lsl #16
    1264:	97fffb92 	bl	ac <PUT32>
    1268:	528a0d00 	mov	w0, #0x5068                	// #20584
    126c:	528021c1 	mov	w1, #0x10e                 	// #270
    1270:	72a7e420 	movk	w0, #0x3f21, lsl #16
    1274:	97fffb8e 	bl	ac <PUT32>
    1278:	52800080 	mov	w0, #0x4                   	// #4
    127c:	72a7e400 	movk	w0, #0x3f20, lsl #16
    1280:	97fffb8d 	bl	b4 <GET32>
    1284:	120e6402 	and	w2, w0, #0xfffc0fff
    1288:	52840001 	mov	w1, #0x2000                	// #8192
    128c:	52800080 	mov	w0, #0x4                   	// #4
    1290:	72a00021 	movk	w1, #0x1, lsl #16
    1294:	72a7e400 	movk	w0, #0x3f20, lsl #16
    1298:	2a010041 	orr	w1, w2, w1
    129c:	97fffb84 	bl	ac <PUT32>
    12a0:	52801280 	mov	w0, #0x94                  	// #148
    12a4:	52800001 	mov	w1, #0x0                   	// #0
    12a8:	72a7e400 	movk	w0, #0x3f20, lsl #16
    12ac:	97fffb80 	bl	ac <PUT32>
    12b0:	2a1303e0 	mov	w0, w19
    12b4:	11000673 	add	w19, w19, #0x1
    12b8:	97fffb83 	bl	c4 <dummy>
    12bc:	71025a7f 	cmp	w19, #0x96
    12c0:	54ffff81 	b.ne	12b0 <init_uart+0xc8>  // b.any
    12c4:	52801300 	mov	w0, #0x98                  	// #152
    12c8:	52800013 	mov	w19, #0x0                   	// #0
    12cc:	72a7e400 	movk	w0, #0x3f20, lsl #16
    12d0:	52980001 	mov	w1, #0xc000                	// #49152
    12d4:	97fffb76 	bl	ac <PUT32>
    12d8:	2a1303e0 	mov	w0, w19
    12dc:	11000673 	add	w19, w19, #0x1
    12e0:	97fffb79 	bl	c4 <dummy>
    12e4:	71025a7f 	cmp	w19, #0x96
    12e8:	54ffff81 	b.ne	12d8 <init_uart+0xf0>  // b.any
    12ec:	52801300 	mov	w0, #0x98                  	// #152
    12f0:	52800001 	mov	w1, #0x0                   	// #0
    12f4:	72a7e400 	movk	w0, #0x3f20, lsl #16
    12f8:	97fffb6d 	bl	ac <PUT32>
    12fc:	f9400bf3 	ldr	x19, [sp, #16]
    1300:	528a0c00 	mov	w0, #0x5060                	// #20576
    1304:	a8c27bfd 	ldp	x29, x30, [sp], #32
    1308:	52800061 	mov	w1, #0x3                   	// #3
    130c:	72a7e420 	movk	w0, #0x3f21, lsl #16
    1310:	17fffb67 	b	ac <PUT32>

Disassembly of section .rodata.str1.8:

0000000000001318 <.rodata.str1.8>:
    1318:	69676542 	.word	0x69676542
    131c:	7262206e 	.word	0x7262206e
    1320:	5f676e69 	.word	0x5f676e69
    1324:	656d6974 	.word	0x656d6974
    1328:	7174756f 	.word	0x7174756f
    132c:	7275635f 	.word	0x7275635f
    1330:	746e6572 	.word	0x746e6572
    1334:	00000000 	.word	0x00000000
    1338:	6e697262 	.word	0x6e697262
    133c:	69745f67 	.word	0x69745f67
    1340:	756f656d 	.word	0x756f656d
    1344:	635f7174 	.word	0x635f7174
    1348:	65727275 	.word	0x65727275
    134c:	202e746e 	.word	0x202e746e
    1350:	66666944 	.word	0x66666944
    1354:	0000003d 	.word	0x0000003d
    1358:	6e697262 	.word	0x6e697262
    135c:	69745f67 	.word	0x69745f67
    1360:	756f656d 	.word	0x756f656d
    1364:	635f7174 	.word	0x635f7174
    1368:	65727275 	.word	0x65727275
    136c:	202e746e 	.word	0x202e746e
    1370:	20646c4f 	.word	0x20646c4f
    1374:	656d6954 	.word	0x656d6954
    1378:	3d74756f 	.word	0x3d74756f
    137c:	00000000 	.word	0x00000000
    1380:	6e697262 	.word	0x6e697262
    1384:	69745f67 	.word	0x69745f67
    1388:	756f656d 	.word	0x756f656d
    138c:	635f7174 	.word	0x635f7174
    1390:	65727275 	.word	0x65727275
    1394:	202e746e 	.word	0x202e746e
    1398:	2077654e 	.word	0x2077654e
    139c:	656d6954 	.word	0x656d6954
    13a0:	3d74756f 	.word	0x3d74756f
    13a4:	00000000 	.word	0x00000000
    13a8:	69676542 	.word	0x69676542
    13ac:	7263206e 	.word	0x7263206e
    13b0:	65746165 	.word	0x65746165
    13b4:	6d69745f 	.word	0x6d69745f
    13b8:	74756f65 	.word	0x74756f65
    13bc:	76655f71 	.word	0x76655f71
    13c0:	00746e65 	.word	0x00746e65
    13c4:	00000000 	.word	0x00000000
    13c8:	61657263 	.word	0x61657263
    13cc:	745f6574 	.word	0x745f6574
    13d0:	6f656d69 	.word	0x6f656d69
    13d4:	5f717475 	.word	0x5f717475
    13d8:	6e657665 	.word	0x6e657665
    13dc:	45202e74 	.word	0x45202e74
    13e0:	746e6576 	.word	0x746e6576
    13e4:	6d697420 	.word	0x6d697420
    13e8:	74756f65 	.word	0x74756f65
    13ec:	0000003d 	.word	0x0000003d
    13f0:	61657263 	.word	0x61657263
    13f4:	745f6574 	.word	0x745f6574
    13f8:	6f656d69 	.word	0x6f656d69
    13fc:	5f717475 	.word	0x5f717475
    1400:	6e657665 	.word	0x6e657665
    1404:	00000074 	.word	0x00000074
    1408:	61657263 	.word	0x61657263
    140c:	745f6574 	.word	0x745f6574
    1410:	6f656d69 	.word	0x6f656d69
    1414:	5f717475 	.word	0x5f717475
    1418:	6e657665 	.word	0x6e657665
    141c:	76652074 	.word	0x76652074
    1420:	20746e65 	.word	0x20746e65
    1424:	706f6f6c 	.word	0x706f6f6c
	...
    1430:	61657263 	.word	0x61657263
    1434:	745f6574 	.word	0x745f6574
    1438:	6f656d69 	.word	0x6f656d69
    143c:	5f717475 	.word	0x5f717475
    1440:	6e657665 	.word	0x6e657665
    1444:	65202e74 	.word	0x65202e74
    1448:	656d656c 	.word	0x656d656c
    144c:	6e20746e 	.word	0x6e20746e
    1450:	003d6d75 	.word	0x003d6d75
    1454:	00000000 	.word	0x00000000
    1458:	61657263 	.word	0x61657263
    145c:	745f6574 	.word	0x745f6574
    1460:	6f656d69 	.word	0x6f656d69
    1464:	5f717475 	.word	0x5f717475
    1468:	6e657665 	.word	0x6e657665
    146c:	74202e74 	.word	0x74202e74
    1470:	6f656d69 	.word	0x6f656d69
    1474:	6c5f7475 	.word	0x6c5f7475
    1478:	3d746665 	.word	0x3d746665
    147c:	00000000 	.word	0x00000000
    1480:	61657263 	.word	0x61657263
    1484:	745f6574 	.word	0x745f6574
    1488:	6f656d69 	.word	0x6f656d69
    148c:	5f717475 	.word	0x5f717475
    1490:	6e657665 	.word	0x6e657665
    1494:	74202e74 	.word	0x74202e74
    1498:	3e2d706d 	.word	0x3e2d706d
    149c:	656d6974 	.word	0x656d6974
    14a0:	3d74756f 	.word	0x3d74756f
    14a4:	00000000 	.word	0x00000000
    14a8:	61657263 	.word	0x61657263
    14ac:	745f6574 	.word	0x745f6574
    14b0:	6f656d69 	.word	0x6f656d69
    14b4:	5f717475 	.word	0x5f717475
    14b8:	6e657665 	.word	0x6e657665
    14bc:	41202e74 	.word	0x41202e74
    14c0:	6e696464 	.word	0x6e696464
    14c4:	76652067 	.word	0x76652067
    14c8:	20746e65 	.word	0x20746e65
    14cc:	65206f74 	.word	0x65206f74
    14d0:	202e646e 	.word	0x202e646e
    14d4:	656d6974 	.word	0x656d6974
    14d8:	3d74756f 	.word	0x3d74756f
    14dc:	00000000 	.word	0x00000000
    14e0:	69676542 	.word	0x69676542
    14e4:	6168206e 	.word	0x6168206e
    14e8:	656c646e 	.word	0x656c646e
    14ec:	6d69745f 	.word	0x6d69745f
    14f0:	74756f65 	.word	0x74756f65
    14f4:	76655f71 	.word	0x76655f71
    14f8:	00746e65 	.word	0x00746e65
    14fc:	00000000 	.word	0x00000000
    1500:	646e6168 	.word	0x646e6168
    1504:	745f656c 	.word	0x745f656c
    1508:	6f656d69 	.word	0x6f656d69
    150c:	5f717475 	.word	0x5f717475
    1510:	6e657665 	.word	0x6e657665
    1514:	00000074 	.word	0x00000074
    1518:	45204f4e 	.word	0x45204f4e
    151c:	524f5252 	.word	0x524f5252
    1520:	0000203a 	.word	0x0000203a
    1524:	00000000 	.word	0x00000000
    1528:	6f727245 	.word	0x6f727245
    152c:	46203a72 	.word	0x46203a72
    1530:	454c4941 	.word	0x454c4941
    1534:	53412044 	.word	0x53412044
    1538:	54524553 	.word	0x54524553
    153c:	204e4f49 	.word	0x204e4f49
    1540:	0000202d 	.word	0x0000202d
    1544:	00000000 	.word	0x00000000
    1548:	6f727245 	.word	0x6f727245
    154c:	4f203a72 	.word	0x4f203a72
    1550:	4f205455 	.word	0x4f205455
    1554:	454d2046 	.word	0x454d2046
    1558:	59524f4d 	.word	0x59524f4d
    155c:	00202d20 	.word	0x00202d20
    1560:	6f727245 	.word	0x6f727245
    1564:	4e203a72 	.word	0x4e203a72
    1568:	5246204f 	.word	0x5246204f
    156c:	45204545 	.word	0x45204545
    1570:	544e4556 	.word	0x544e4556
    1574:	00202d20 	.word	0x00202d20
    1578:	6f727245 	.word	0x6f727245
    157c:	4e203a72 	.word	0x4e203a72
    1580:	5551204f 	.word	0x5551204f
    1584:	20455545 	.word	0x20455545
    1588:	44414548 	.word	0x44414548
    158c:	00202d20 	.word	0x00202d20
    1590:	6f727245 	.word	0x6f727245
    1594:	45203a72 	.word	0x45203a72
    1598:	4f4e5252 	.word	0x4f4e5252
    159c:	504e4920 	.word	0x504e4920
    15a0:	45205455 	.word	0x45205455
    15a4:	45454358 	.word	0x45454358
    15a8:	4d205344 	.word	0x4d205344
    15ac:	4d495841 	.word	0x4d495841
    15b0:	2d204d55 	.word	0x2d204d55
    15b4:	00000020 	.word	0x00000020
    15b8:	0000003a 	.word	0x0000003a
    15bc:	00000000 	.word	0x00000000
    15c0:	0000002e 	.word	0x0000002e
    15c4:	00000000 	.word	0x00000000
    15c8:	3d63703c 	.word	0x3d63703c
    15cc:	00000000 	.word	0x00000000
    15d0:	202d203e 	.word	0x202d203e
    15d4:	00000000 	.word	0x00000000
    15d8:	0000000a 	.word	0x0000000a
    15dc:	00000000 	.word	0x00000000
    15e0:	7c30635b 	.word	0x7c30635b
    15e4:	00000000 	.word	0x00000000
    15e8:	7c31635b 	.word	0x7c31635b
    15ec:	00000000 	.word	0x00000000
    15f0:	7c32635b 	.word	0x7c32635b
    15f4:	00000000 	.word	0x00000000
    15f8:	7c33635b 	.word	0x7c33635b
    15fc:	00000000 	.word	0x00000000
    1600:	6f6b6e75 	.word	0x6f6b6e75
    1604:	63206e77 	.word	0x63206e77
    1608:	2065726f 	.word	0x2065726f
    160c:	63206e69 	.word	0x63206e69
    1610:	6f736e6f 	.word	0x6f736e6f
    1614:	6c20656c 	.word	0x6c20656c
    1618:	6620676f 	.word	0x6620676f
    161c:	74636e75 	.word	0x74636e75
    1620:	006e6f69 	.word	0x006e6f69
    1624:	00000000 	.word	0x00000000
    1628:	0000205d 	.word	0x0000205d
    162c:	00000000 	.word	0x00000000
    1630:	74737953 	.word	0x74737953
    1634:	69206d65 	.word	0x69206d65
    1638:	6f622073 	.word	0x6f622073
    163c:	6e69746f 	.word	0x6e69746f
    1640:	00002e67 	.word	0x00002e67
    1644:	00000000 	.word	0x00000000
    1648:	61656c50 	.word	0x61656c50
    164c:	68206573 	.word	0x68206573
    1650:	65207469 	.word	0x65207469
    1654:	7265746e 	.word	0x7265746e
    1658:	206f7420 	.word	0x206f7420
    165c:	746e6f63 	.word	0x746e6f63
    1660:	65756e69 	.word	0x65756e69
    1664:	00000a2e 	.word	0x00000a2e
    1668:	74736554 	.word	0x74736554
    166c:	42454420 	.word	0x42454420
    1670:	4c5f4755 	.word	0x4c5f4755
    1674:	0000574f 	.word	0x0000574f
    1678:	69205154 	.word	0x69205154
    167c:	736d6574 	.word	0x736d6574
    1680:	65726320 	.word	0x65726320
    1684:	64657461 	.word	0x64657461
    1688:	7572203b 	.word	0x7572203b
    168c:	6e696e6e 	.word	0x6e696e6e
    1690:	6f6c2067 	.word	0x6f6c2067
    1694:	0a2e706f 	.word	0x0a2e706f
	...
    16a0:	20706f74 	.word	0x20706f74
    16a4:	6c20666f 	.word	0x6c20666f
    16a8:	20706f6f 	.word	0x20706f6f
    16ac:	6e657665 	.word	0x6e657665
    16b0:	00000074 	.word	0x00000074
    16b4:	00000000 	.word	0x00000000
    16b8:	646e6168 	.word	0x646e6168
    16bc:	2064656c 	.word	0x2064656c
    16c0:	6e657665 	.word	0x6e657665
    16c4:	00002e74 	.word	0x00002e74
    16c8:	65206f6e 	.word	0x65206f6e
    16cc:	746e6576 	.word	0x746e6576
    16d0:	6261202e 	.word	0x6261202e
    16d4:	2074756f 	.word	0x2074756f
    16d8:	77206f74 	.word	0x77206f74
    16dc:	20746961 	.word	0x20746961
    16e0:	20726f66 	.word	0x20726f66
    16e4:	0000203d 	.word	0x0000203d
    16e8:	656e6f64 	.word	0x656e6f64
    16ec:	69617720 	.word	0x69617720
    16f0:	676e6974 	.word	0x676e6974
    16f4:	00203d20 	.word	0x00203d20
    16f8:	615f6c6c 	.word	0x615f6c6c
    16fc:	72657373 	.word	0x72657373
    1700:	00000074 	.word	0x00000074
    1704:	00000000 	.word	0x00000000
    1708:	695f6c6c 	.word	0x695f6c6c
    170c:	7265736e 	.word	0x7265736e
    1710:	00000074 	.word	0x00000074
    1714:	00000000 	.word	0x00000000

Disassembly of section .bss:

0000000000001718 <then_usec>:
	...

0000000000001720 <queue>:
	...

0000000000003f20 <TQ>:
	...

0000000000003f30 <timeoutq>:
	...

0000000000003f38 <FL>:
	...

0000000000003f48 <freelist>:
	...

0000000000003f50 <errmsg>:
	...

Disassembly of section .comment:

0000000000000000 <.comment>:
   0:	3a434347 	ccmn	w26, w3, #0x7, mi  // mi = first
   4:	4e472820 	trn1	v0.8h, v1.8h, v7.8h
   8:	6f542055 	umlal2	v21.4s, v2.8h, v4.h[1]
   c:	68636c6f 	.inst	0x68636c6f ; undefined
  10:	206e6961 	.inst	0x206e6961 ; undefined
  14:	20726f66 	.inst	0x20726f66 ; undefined
  18:	20656874 	.inst	0x20656874 ; undefined
  1c:	72702d41 	.inst	0x72702d41 ; undefined
  20:	6c69666f 	ldnp	d15, d25, [x19, #-368]
  24:	72412065 	.inst	0x72412065 ; undefined
  28:	74696863 	.inst	0x74696863 ; undefined
  2c:	75746365 	.inst	0x75746365 ; undefined
  30:	38206572 	.inst	0x38206572 ; undefined
  34:	322d322e 	orr	w14, w17, #0xfff80000
  38:	2e393130 	usubw	v16.8h, v9.8h, v25.8b
  3c:	28203130 	stnp	w16, w12, [x9, #-256]
  40:	2d6d7261 	ldp	s1, s28, [x19, #-152]
  44:	2d6c6572 	ldp	s18, s25, [x11, #-160]
  48:	38322e38 	.inst	0x38322e38 ; undefined
  4c:	38202929 	.inst	0x38202929 ; undefined
  50:	312e322e 	adds	w14, w17, #0xb8c
  54:	31303220 	adds	w0, w17, #0xc0c
  58:	30383038 	adr	x24, 7065d <errmsg+0x6c70d>
  5c:	Address 0x000000000000005c is out of bounds.

